target datalayout = "e-m:e-p270:32:32-p271:32:32-p272:64:64-i64:64-i128:128-f80:128-n8:16:32:64-S128"
target triple = "x86_64-pc-linux-gnu"

%struct.gmx_sel_mempool_t = type { i64, i64, ptr, ptr, i32, ptr, i32, i64 }
%struct.gmx_sel_mempool_block_t = type { ptr, i64 }

@.str = private unnamed_addr constant [3 x i8] c"mp\00", align 1
@.str.1 = private unnamed_addr constant [127 x i8] c"generated/home/dtcxzyw/WorkSpace/Projects/compilers/llvm-opt-benchmark/bench/gromacs/gromacs/src/gromacs/selection/mempool.cpp\00", align 1
@.str.2 = private unnamed_addr constant [22 x i8] c"mp->blockstack[i].ptr\00", align 1
@.str.3 = private unnamed_addr constant [11 x i8] c"mp->buffer\00", align 1
@.str.4 = private unnamed_addr constant [15 x i8] c"mp->blockstack\00", align 1

; Function Attrs: mustprogress uwtable
define internal void @_ZL14gmx_sfree_implI17gmx_sel_mempool_tEvPKcS2_iPT_(ptr noundef %0, ptr noundef %1, i32 noundef %2, ptr noundef %3) #0 {
  %5 = alloca ptr, align 8
  %6 = alloca ptr, align 8
  %7 = alloca i32, align 4
  %8 = alloca ptr, align 8
  store ptr %0, ptr %5, align 8
  store ptr %1, ptr %6, align 8
  store i32 %2, ptr %7, align 4
  store ptr %3, ptr %8, align 8
  %9 = load ptr, ptr %5, align 8
  %10 = load ptr, ptr %6, align 8
  %11 = load i32, ptr %7, align 4
  %12 = load ptr, ptr %8, align 8
  call void @_Z9save_freePKcS0_iPv(ptr noundef %9, ptr noundef %10, i32 noundef %11, ptr noundef %12)
  ret void
}

; Function Attrs: mustprogress uwtable
define internal void @_ZL14gmx_sfree_implI23gmx_sel_mempool_block_tEvPKcS2_iPT_(ptr noundef %0, ptr noundef %1, i32 noundef %2, ptr noundef %3) #0 {
  %5 = alloca ptr, align 8
  %6 = alloca ptr, align 8
  %7 = alloca i32, align 4
  %8 = alloca ptr, align 8
  store ptr %0, ptr %5, align 8
  store ptr %1, ptr %6, align 8
  store i32 %2, ptr %7, align 4
  store ptr %3, ptr %8, align 8
  %9 = load ptr, ptr %5, align 8
  %10 = load ptr, ptr %6, align 8
  %11 = load i32, ptr %7, align 4
  %12 = load ptr, ptr %8, align 8
  call void @_Z9save_freePKcS0_iPv(ptr noundef %9, ptr noundef %10, i32 noundef %11, ptr noundef %12)
  ret void
}

; Function Attrs: mustprogress uwtable
define internal void @_ZL14gmx_sfree_implIcEvPKcS1_iPT_(ptr noundef %0, ptr noundef %1, i32 noundef %2, ptr noundef %3) #0 {
  %5 = alloca ptr, align 8
  %6 = alloca ptr, align 8
  %7 = alloca i32, align 4
  %8 = alloca ptr, align 8
  store ptr %0, ptr %5, align 8
  store ptr %1, ptr %6, align 8
  store i32 %2, ptr %7, align 4
  store ptr %3, ptr %8, align 8
  %9 = load ptr, ptr %5, align 8
  %10 = load ptr, ptr %6, align 8
  %11 = load i32, ptr %7, align 4
  %12 = load ptr, ptr %8, align 8
  call void @_Z9save_freePKcS0_iPv(ptr noundef %9, ptr noundef %10, i32 noundef %11, ptr noundef %12)
  ret void
}

; Function Attrs: mustprogress uwtable
define internal void @_ZL14gmx_sfree_implIvEvPKcS1_iPT_(ptr noundef %0, ptr noundef %1, i32 noundef %2, ptr noundef %3) #0 {
  %5 = alloca ptr, align 8
  %6 = alloca ptr, align 8
  %7 = alloca i32, align 4
  %8 = alloca ptr, align 8
  store ptr %0, ptr %5, align 8
  store ptr %1, ptr %6, align 8
  store i32 %2, ptr %7, align 4
  store ptr %3, ptr %8, align 8
  %9 = load ptr, ptr %5, align 8
  %10 = load ptr, ptr %6, align 8
  %11 = load i32, ptr %7, align 4
  %12 = load ptr, ptr %8, align 8
  call void @_Z9save_freePKcS0_iPv(ptr noundef %9, ptr noundef %10, i32 noundef %11, ptr noundef %12)
  ret void
}

; Function Attrs: mustprogress uwtable
define void @_Z24_gmx_sel_mempool_destroyP17gmx_sel_mempool_t(ptr noundef %0) #0 {
  %2 = alloca ptr, align 8
  %3 = alloca i32, align 4
  store ptr %0, ptr %2, align 8
  %4 = load ptr, ptr %2, align 8
  %5 = getelementptr inbounds %struct.gmx_sel_mempool_t, ptr %4, i32 0, i32 2
  %6 = load ptr, ptr %5, align 8
  %7 = icmp ne ptr %6, null
  br i1 %7, label %28, label %8

8:                                                ; preds = %1
  store i32 0, ptr %3, align 4
  br label %9

9:                                                ; preds = %24, %8
  %10 = load i32, ptr %3, align 4
  %11 = load ptr, ptr %2, align 8
  %12 = getelementptr inbounds %struct.gmx_sel_mempool_t, ptr %11, i32 0, i32 4
  %13 = load i32, ptr %12, align 8
  %14 = icmp slt i32 %10, %13
  br i1 %14, label %15, label %27

15:                                               ; preds = %9
  %16 = load ptr, ptr %2, align 8
  %17 = getelementptr inbounds %struct.gmx_sel_mempool_t, ptr %16, i32 0, i32 5
  %18 = load ptr, ptr %17, align 8
  %19 = load i32, ptr %3, align 4
  %20 = sext i32 %19 to i64
  %21 = getelementptr inbounds %struct.gmx_sel_mempool_block_t, ptr %18, i64 %20
  %22 = getelementptr inbounds %struct.gmx_sel_mempool_block_t, ptr %21, i32 0, i32 0
  %23 = load ptr, ptr %22, align 8
  call void @_ZL14gmx_sfree_implIvEvPKcS1_iPT_(ptr noundef @.str.2, ptr noundef @.str.1, i32 noundef 119, ptr noundef %23)
  br label %24

24:                                               ; preds = %15
  %25 = load i32, ptr %3, align 4
  %26 = add nsw i32 %25, 1
  store i32 %26, ptr %3, align 4
  br label %9, !llvm.loop !5

27:                                               ; preds = %9
  br label %28

28:                                               ; preds = %27, %1
  %29 = load ptr, ptr %2, align 8
  %30 = getelementptr inbounds %struct.gmx_sel_mempool_t, ptr %29, i32 0, i32 2
  %31 = load ptr, ptr %30, align 8
  call void @_ZL14gmx_sfree_implIcEvPKcS1_iPT_(ptr noundef @.str.3, ptr noundef @.str.1, i32 noundef 122, ptr noundef %31)
  %32 = load ptr, ptr %2, align 8
  %33 = getelementptr inbounds %struct.gmx_sel_mempool_t, ptr %32, i32 0, i32 5
  %34 = load ptr, ptr %33, align 8
  call void @_ZL14gmx_sfree_implI23gmx_sel_mempool_block_tEvPKcS2_iPT_(ptr noundef @.str.4, ptr noundef @.str.1, i32 noundef 123, ptr noundef %34)
  %35 = load ptr, ptr %2, align 8
  call void @_ZL14gmx_sfree_implI17gmx_sel_mempool_tEvPKcS2_iPT_(ptr noundef @.str, ptr noundef @.str.1, i32 noundef 124, ptr noundef %35)
  ret void
}